target datalayout = "e-m:e-p270:32:32-p271:32:32-p272:64:64-i64:64-i128:128-f80:128-n8:16:32:64-S128"
target triple = "x86_64-pc-linux-gnu"

%"class.igl::opengl::ViewerCore" = type { i32, [12 x i8], %"class.Eigen::Matrix.3", %"class.Eigen::Matrix.12", i8, i8, i32, i32, i32, i32, i32, float, i32, [4 x i8], %"class.Eigen::Quaternion", float, float, i8, %"class.Eigen::Matrix.12", %"class.Eigen::Matrix.12", %"class.Eigen::Matrix.12", %"class.Eigen::Matrix.12", %"class.Eigen::Matrix.12", float, float, float, i8, i8, double, float, [12 x i8], %"class.Eigen::Matrix.3", %"class.Eigen::Matrix.22", %"class.Eigen::Matrix.22", %"class.Eigen::Matrix.22", %"class.Eigen::Matrix.22", %"class.Eigen::Matrix.22" }
%"class.Eigen::Quaternion" = type { %"class.Eigen::Matrix.3" }
%"class.Eigen::Matrix.12" = type { %"class.Eigen::PlainObjectBase.13" }
%"class.Eigen::PlainObjectBase.13" = type { %"class.Eigen::DenseStorage.20" }
%"class.Eigen::DenseStorage.20" = type { %"struct.Eigen::internal::plain_array.21" }
%"struct.Eigen::internal::plain_array.21" = type { [3 x float] }
%"class.Eigen::Matrix.3" = type { %"class.Eigen::PlainObjectBase.4" }
%"class.Eigen::PlainObjectBase.4" = type { %"class.Eigen::DenseStorage.11" }
%"class.Eigen::DenseStorage.11" = type { %"struct.Eigen::internal::plain_array" }
%"struct.Eigen::internal::plain_array" = type { [4 x float] }
%"class.Eigen::Matrix.22" = type { %"class.Eigen::PlainObjectBase.23" }
%"class.Eigen::PlainObjectBase.23" = type { %"class.Eigen::DenseStorage.30" }
%"class.Eigen::DenseStorage.30" = type { %"struct.Eigen::internal::plain_array.31" }
%"struct.Eigen::internal::plain_array.31" = type { [16 x float] }

; Function Attrs: mustprogress nounwind uwtable
define dso_local void @_ZNK3igl6opengl10ViewerCore5unsetERj(ptr noundef nonnull align 16 dereferenceable(544) %0, ptr noundef nonnull align 4 dereferenceable(4) %1) #1 align 2 {
  %3 = alloca ptr, align 8
  %4 = alloca ptr, align 8
  store ptr %0, ptr %3, align 8, !tbaa !15
  store ptr %1, ptr %4, align 8, !tbaa !202
  %5 = load ptr, ptr %3, align 8
  %6 = getelementptr inbounds nuw %"class.igl::opengl::ViewerCore", ptr %5, i32 0, i32 0
  %7 = load i32, ptr %6, align 16, !tbaa !191
  %8 = xor i32 %7, -1
  %9 = load ptr, ptr %4, align 8, !tbaa !202
  %10 = load i32, ptr %9, align 4, !tbaa !136
  %11 = and i32 %10, %8
  store i32 %11, ptr %9, align 4, !tbaa !136
  ret void
}

; Function Attrs: mustprogress uwtable
define dso_local void @_ZNK3igl6opengl10ViewerCore3setERjb(ptr noundef nonnull align 16 dereferenceable(544) %0, ptr noundef nonnull align 4 dereferenceable(4) %1, i1 noundef zeroext %2) #3 align 2 {
  %4 = alloca ptr, align 8
  %5 = alloca ptr, align 8
  %6 = alloca i8, align 1
  store ptr %0, ptr %4, align 8, !tbaa !15
  store ptr %1, ptr %5, align 8, !tbaa !202
  %7 = zext i1 %2 to i8
  store i8 %7, ptr %6, align 1, !tbaa !94
  %8 = load ptr, ptr %4, align 8
  %9 = load i8, ptr %6, align 1, !tbaa !94, !range !96, !noundef !97
  %10 = trunc i8 %9 to i1
  br i1 %10, label %13, label %11

11:                                               ; preds = %3
  %12 = load ptr, ptr %5, align 8, !tbaa !202
  call void @_ZNK3igl6opengl10ViewerCore5unsetERj(ptr noundef nonnull align 16 dereferenceable(544) %8, ptr noundef nonnull align 4 dereferenceable(4) %12)
  br label %19

13:                                               ; preds = %3
  %14 = getelementptr inbounds nuw %"class.igl::opengl::ViewerCore", ptr %8, i32 0, i32 0
  %15 = load i32, ptr %14, align 16, !tbaa !191
  %16 = load ptr, ptr %5, align 8, !tbaa !202
  %17 = load i32, ptr %16, align 4, !tbaa !136
  %18 = or i32 %17, %15
  store i32 %18, ptr %16, align 4, !tbaa !136
  br label %19

19:                                               ; preds = %13, %11
  ret void
}