; Function Attrs: mustprogress nofree norecurse nosync nounwind willreturn memory(argmem: readwrite) uwtable
define dso_local void @_ZNK3igl6opengl10ViewerCore3setERjb(ptr noundef nonnull readonly align 16 captures(none) dereferenceable(544) %0, ptr noundef nonnull align 4 captures(none) dereferenceable(4) %1, i1 noundef zeroext %2) local_unnamed_addr #8 align 2 {
  %4 = load i32, ptr %0, align 16, !tbaa !121
  br i1 %2, label %9, label %5

5:                                                ; preds = %3
  %6 = xor i32 %4, -1
  %7 = load i32, ptr %1, align 4, !tbaa !108
  %8 = and i32 %7, %6
  br label %12

9:                                                ; preds = %3
  %10 = load i32, ptr %1, align 4, !tbaa !108
  %11 = or i32 %10, %4
  br label %12

12:                                               ; preds = %9, %5
  %storemerge = phi i32 [ %8, %5 ], [ %11, %9 ]
  store i32 %storemerge, ptr %1, align 4, !tbaa !108
  ret void
}